target datalayout = "e-m:e-p270:32:32-p271:32:32-p272:64:64-i64:64-i128:128-f80:128-n8:16:32:64-S128"
target triple = "x86_64-pc-linux-gnu"

%struct._dof_packet_data = type { ptr, i32, i32, ptr, i8, ptr, i32, i32, i8, i8, i32, i32, ptr, ptr, i8, %struct._dpp_opid, i8, %struct._dpp_opid, ptr, ptr, ptr, ptr, ptr, ptr, ptr, ptr, ptr, ptr, ptr, i16, ptr, ptr }
%struct._dpp_opid = type { i32, ptr, i32 }
%struct._dof_proto_data = type { i32, ptr }

; Function Attrs: null_pointer_is_valid sspstrong uwtable
define internal void @dof_packet_add_proto_data(ptr noundef %0, i32 noundef %1, ptr noundef %2) #0 {
  %4 = alloca ptr, align 8
  %5 = alloca i32, align 4
  %6 = alloca ptr, align 8
  %7 = alloca ptr, align 8
  store ptr %0, ptr %4, align 8
  store i32 %1, ptr %5, align 4
  store ptr %2, ptr %6, align 8
  call void @llvm.lifetime.start.p0(i64 8, ptr %7) #19
  %8 = call ptr @wmem_file_scope()
  %9 = call noalias ptr @wmem_alloc0(ptr noundef %8, i64 noundef 16) #21
  store ptr %9, ptr %7, align 8
  %10 = load i32, ptr %5, align 4
  %11 = load ptr, ptr %7, align 8
  %12 = getelementptr inbounds nuw %struct._dof_proto_data, ptr %11, i32 0, i32 0
  store i32 %10, ptr %12, align 8
  %13 = load ptr, ptr %6, align 8
  %14 = load ptr, ptr %7, align 8
  %15 = getelementptr inbounds nuw %struct._dof_proto_data, ptr %14, i32 0, i32 1
  store ptr %13, ptr %15, align 8
  %16 = load ptr, ptr %4, align 8
  %17 = getelementptr inbounds nuw %struct._dof_packet_data, ptr %16, i32 0, i32 0
  %18 = load ptr, ptr %17, align 8
  %19 = load ptr, ptr %7, align 8
  call void @wmem_list_insert_sorted(ptr noundef %18, ptr noundef %19, ptr noundef @p_compare)
  call void @llvm.lifetime.end.p0(i64 8, ptr %7) #19
  ret void
}