; Function Attrs: null_pointer_is_valid sspstrong uwtable
define internal fastcc void @dof_packet_add_proto_data(ptr noundef nonnull readonly captures(none) %0, i32 noundef %1, ptr noundef %2) unnamed_addr #0 {
  %4 = tail call ptr @wmem_file_scope()
  %5 = tail call noalias dereferenceable_or_null(16) ptr @wmem_alloc0(ptr noundef %4, i64 noundef 16) #24
  store i32 %1, ptr %5, align 8
  %6 = getelementptr inbounds nuw i8, ptr %5, i64 8
  store ptr %2, ptr %6, align 8
  %7 = load ptr, ptr %0, align 8
  tail call void @wmem_list_insert_sorted(ptr noundef %7, ptr noundef %5, ptr noundef nonnull @p_compare)
  ret void
}